target datalayout = "e-m:e-p270:32:32-p271:32:32-p272:64:64-i64:64-i128:128-f80:128-n8:16:32:64-S128"
target triple = "x86_64-pc-linux-gnu"

%"struct.std::atomic.98" = type { %"struct.std::__atomic_base.99" }
%"struct.std::__atomic_base.99" = type { i64 }
%class.anon.201 = type { ptr }
%"class.absl::lts_20240722::log_internal::NullStream" = type { i8 }
%"class.grpc_core::Arena" = type { %"class.grpc_core::RefCounted", i64, %"struct.std::atomic.98", %"struct.std::atomic.98", %"struct.std::atomic.100", %"struct.std::atomic.102", %"class.grpc_core::RefCountedPtr.104" }
%"class.grpc_core::RefCounted" = type { %"class.grpc_core::RefCount" }
%"class.grpc_core::RefCount" = type { %"struct.std::atomic.96" }
%"struct.std::atomic.96" = type { %"struct.std::__atomic_base.97" }
%"struct.std::__atomic_base.97" = type { i64 }
%"struct.std::atomic.100" = type { %"struct.std::__atomic_base.101" }
%"struct.std::__atomic_base.101" = type { ptr }
%"struct.std::atomic.102" = type { %"struct.std::__atomic_base.103" }
%"struct.std::__atomic_base.103" = type { ptr }
%"class.grpc_core::RefCountedPtr.104" = type { ptr }
%"class.grpc_core::CallFinalization::FuncFinalizer" = type { %"class.grpc_core::CallFinalization::Finalizer", ptr, %class.anon.201 }
%"class.grpc_core::CallFinalization::Finalizer" = type { ptr }

@_ZN9grpc_core12arena_detail18ArenaContextTraitsINS_19CallTracerInterfaceEE3id_E = linkonce_odr global i16 0, comdat, align 2
@_ZN9grpc_core14promise_detail18ThreadLocalContextINS_5ArenaEE8current_E = linkonce_odr thread_local global ptr null, comdat, align 8

; Function Attrs: alwaysinline mustprogress nounwind uwtable
define linkonce_odr noundef zeroext i16 @_ZN9grpc_core12arena_detail18ArenaContextTraitsINS_19CallTracerInterfaceEE2idEv() #8 comdat align 2 {
  %1 = load i16, ptr @_ZN9grpc_core12arena_detail18ArenaContextTraitsINS_19CallTracerInterfaceEE3id_E, align 2, !tbaa !39
  ret i16 %1
}

; Function Attrs: alwaysinline mustprogress nounwind uwtable
define linkonce_odr noundef ptr @_ZN9grpc_core5Arena8contextsEv(ptr noundef nonnull align 8 dereferenceable(56) %0) #8 comdat align 2 {
  %2 = alloca ptr, align 8
  store ptr %0, ptr %2, align 8, !tbaa !191
  %3 = load ptr, ptr %2, align 8
  %4 = getelementptr inbounds %"class.grpc_core::Arena", ptr %3, i64 1
  ret ptr %4
}

; Function Attrs: mustprogress nounwind uwtable
define linkonce_odr noundef nonnull align 1 dereferenceable(1) ptr @_ZN4absl12lts_2024072212log_internal10NullStream14InternalStreamEv(ptr noundef nonnull align 1 dereferenceable(1) %0) #6 comdat align 2 {
  %2 = alloca ptr, align 8
  store ptr %0, ptr %2, align 8, !tbaa !317
  %3 = load ptr, ptr %2, align 8
  ret ptr %3
}

; Function Attrs: alwaysinline mustprogress nounwind uwtable
define linkonce_odr noundef ptr @_ZN9grpc_core14promise_detail18ThreadLocalContextINS_5ArenaEE3getEv() #8 comdat align 2 {
  %1 = call align 8 ptr @llvm.threadlocal.address.p0(ptr align 8 @_ZN9grpc_core14promise_detail18ThreadLocalContextINS_5ArenaEE8current_E)
  %2 = load ptr, ptr %1, align 8, !tbaa !191
  ret ptr %2
}

; Function Attrs: alwaysinline mustprogress uwtable
define linkonce_odr noundef ptr @_ZN9grpc_core5Arena10GetContextINS_19CallTracerInterfaceEEEPT_v(ptr noundef nonnull align 8 dereferenceable(56) %0) #7 comdat align 2 {
  %2 = alloca ptr, align 8
  store ptr %0, ptr %2, align 8, !tbaa !191
  %3 = load ptr, ptr %2, align 8
  %4 = call noundef ptr @_ZN9grpc_core5Arena8contextsEv(ptr noundef nonnull align 8 dereferenceable(56) %3)
  %5 = call noundef zeroext i16 @_ZN9grpc_core12arena_detail18ArenaContextTraitsINS_19CallTracerInterfaceEE2idEv()
  %6 = zext i16 %5 to i64
  %7 = getelementptr inbounds nuw ptr, ptr %4, i64 %6
  %8 = load ptr, ptr %7, align 8, !tbaa !41
  ret ptr %8
}

; Function Attrs: alwaysinline mustprogress uwtable
define linkonce_odr noundef ptr @_ZN9grpc_core10GetContextINS_5ArenaEEEPT_v() #7 comdat {
  %1 = alloca ptr, align 8
  %2 = alloca %"class.absl::lts_20240722::log_internal::NullStream", align 1
  call void @llvm.lifetime.start.p0(i64 8, ptr %1) #3
  %3 = call noundef ptr @_ZN9grpc_core14promise_detail18ThreadLocalContextINS_5ArenaEE3getEv()
  store ptr %3, ptr %1, align 8, !tbaa !191
  br label %4

4:                                                ; preds = %5, %0
  br i1 false, label %5, label %7

5:                                                ; preds = %4
  call void @llvm.lifetime.start.p0(i64 1, ptr %2) #3
  %6 = call noundef nonnull align 1 dereferenceable(1) ptr @_ZN4absl12lts_2024072212log_internal10NullStream14InternalStreamEv(ptr noundef nonnull align 1 dereferenceable(1) %2)
  call void @llvm.lifetime.end.p0(i64 1, ptr %2) #3
  br label %4, !llvm.loop !319

7:                                                ; preds = %4
  %8 = load ptr, ptr %1, align 8, !tbaa !191
  call void @llvm.lifetime.end.p0(i64 8, ptr %1) #3
  ret ptr %8
}

; Function Attrs: alwaysinline mustprogress nounwind uwtable
define linkonce_odr noundef ptr @_ZN9grpc_core8DownCastIPNS_16ServerCallTracerENS_19CallTracerInterfaceEEET_PT0_(ptr noundef %0) #8 comdat {
  %2 = alloca ptr, align 8
  store ptr %0, ptr %2, align 8, !tbaa !607
  %3 = load ptr, ptr %2, align 8, !tbaa !607
  ret ptr %3
}

; Function Attrs: alwaysinline mustprogress uwtable
define linkonce_odr noundef ptr @_ZN9grpc_core14promise_detail7ContextINS_19CallTracerInterfaceEvE3getEv() #7 comdat align 2 {
  %1 = call noundef ptr @_ZN9grpc_core10GetContextINS_5ArenaEEEPT_v()
  %2 = call noundef ptr @_ZN9grpc_core5Arena10GetContextINS_19CallTracerInterfaceEEEPT_v(ptr noundef nonnull align 8 dereferenceable(56) %1)
  ret ptr %2
}

; Function Attrs: alwaysinline mustprogress uwtable
define linkonce_odr noundef ptr @_ZN9grpc_core14promise_detail7ContextINS_16ServerCallTracerEvE3getEv() #7 comdat align 2 {
  %1 = call noundef ptr @_ZN9grpc_core14promise_detail7ContextINS_19CallTracerInterfaceEvE3getEv()
  %2 = call noundef ptr @_ZN9grpc_core8DownCastIPNS_16ServerCallTracerENS_19CallTracerInterfaceEEET_PT0_(ptr noundef %1)
  ret ptr %2
}

; Function Attrs: alwaysinline mustprogress uwtable
define linkonce_odr noundef ptr @_ZN9grpc_core15MaybeGetContextINS_16ServerCallTracerEEEPT_v() #7 comdat {
  %1 = call noundef ptr @_ZN9grpc_core14promise_detail7ContextINS_16ServerCallTracerEvE3getEv()
  ret ptr %1
}

; Function Attrs: mustprogress uwtable
define internal void @_ZN9grpc_core12_GLOBAL__N_122ServerCallTracerFilter4Call10OnFinalizeEPK20grpc_call_final_info(ptr noundef nonnull align 1 dereferenceable(1) %0, ptr noundef %1) #4 align 2 {
  %3 = alloca ptr, align 8
  %4 = alloca ptr, align 8
  %5 = alloca ptr, align 8
  %6 = alloca i32, align 4
  store ptr %0, ptr %3, align 8, !tbaa !264
  store ptr %1, ptr %4, align 8, !tbaa !99
  br label %7

7:                                                ; preds = %2
  br label %8

8:                                                ; preds = %7
  call void @llvm.lifetime.start.p0(i64 8, ptr %5) #3
  %9 = call noundef ptr @_ZN9grpc_core15MaybeGetContextINS_16ServerCallTracerEEEPT_v()
  store ptr %9, ptr %5, align 8, !tbaa !267
  %10 = load ptr, ptr %5, align 8, !tbaa !267
  %11 = icmp eq ptr %10, null
  br i1 %11, label %12, label %13

12:                                               ; preds = %8
  store i32 1, ptr %6, align 4
  br label %19

13:                                               ; preds = %8
  %14 = load ptr, ptr %5, align 8, !tbaa !267
  %15 = load ptr, ptr %4, align 8, !tbaa !99
  %16 = load ptr, ptr %14, align 8, !tbaa !46
  %17 = getelementptr inbounds ptr, ptr %16, i64 20
  %18 = load ptr, ptr %17, align 8
  call void %18(ptr noundef nonnull align 8 dereferenceable(8) %14, ptr noundef %15)
  store i32 0, ptr %6, align 4
  br label %19

19:                                               ; preds = %13, %12
  call void @llvm.lifetime.end.p0(i64 8, ptr %5) #3
  %20 = load i32, ptr %6, align 4
  switch i32 %20, label %22 [
    i32 0, label %21
    i32 1, label %21
  ]

21:                                               ; preds = %19, %19
  ret void

22:                                               ; preds = %19
  unreachable
}

; Function Attrs: mustprogress nounwind uwtable
define linkonce_odr void @_ZN9grpc_core16CallFinalization9FinalizerD2Ev(ptr noundef nonnull align 8 dereferenceable(8) %0) unnamed_addr #6 comdat align 2 {
  %2 = alloca ptr, align 8
  store ptr %0, ptr %2, align 8, !tbaa !180
  ret void
}

; Function Attrs: inlinehint mustprogress uwtable
define internal void @_ZZN9grpc_core21promise_filter_detail17InterceptFinalizeINS_12_GLOBAL__N_122ServerCallTracerFilter4CallEEEvMT_FvPK20grpc_call_final_infoEPvPS5_ENKUlS8_E_clES8_(ptr noundef nonnull align 8 dereferenceable(8) %0, ptr noundef %1) #17 align 2 {
  %3 = alloca ptr, align 8
  %4 = alloca ptr, align 8
  store ptr %0, ptr %3, align 8, !tbaa !41
  store ptr %1, ptr %4, align 8, !tbaa !99
  %5 = load ptr, ptr %3, align 8
  %6 = getelementptr inbounds nuw %class.anon.201, ptr %5, i32 0, i32 0
  %7 = load ptr, ptr %6, align 8, !tbaa !269
  %8 = load ptr, ptr %4, align 8, !tbaa !99
  call void @_ZN9grpc_core12_GLOBAL__N_122ServerCallTracerFilter4Call10OnFinalizeEPK20grpc_call_final_info(ptr noundef nonnull align 1 dereferenceable(1) %7, ptr noundef %8)
  ret void
}

; Function Attrs: mustprogress uwtable
define internal void @_ZN9grpc_core16CallFinalization13FuncFinalizerIZNS_21promise_filter_detail17InterceptFinalizeINS_12_GLOBAL__N_122ServerCallTracerFilter4CallEEEvMT_FvPK20grpc_call_final_infoEPvPS7_EUlSA_E_E3RunESA_(ptr noundef nonnull align 8 dereferenceable(24) %0, ptr noundef %1) unnamed_addr #4 align 2 {
  %3 = alloca ptr, align 8
  %4 = alloca ptr, align 8
  %5 = alloca ptr, align 8
  store ptr %0, ptr %3, align 8, !tbaa !611
  store ptr %1, ptr %4, align 8, !tbaa !99
  %6 = load ptr, ptr %3, align 8
  %7 = getelementptr inbounds nuw %"class.grpc_core::CallFinalization::FuncFinalizer", ptr %6, i32 0, i32 2
  %8 = load ptr, ptr %4, align 8, !tbaa !99
  call void @_ZZN9grpc_core21promise_filter_detail17InterceptFinalizeINS_12_GLOBAL__N_122ServerCallTracerFilter4CallEEEvMT_FvPK20grpc_call_final_infoEPvPS5_ENKUlS8_E_clES8_(ptr noundef nonnull align 8 dereferenceable(8) %7, ptr noundef %8)
  call void @llvm.lifetime.start.p0(i64 8, ptr %5) #3
  %9 = getelementptr inbounds nuw %"class.grpc_core::CallFinalization::FuncFinalizer", ptr %6, i32 0, i32 1
  %10 = load ptr, ptr %9, align 8, !tbaa !613
  store ptr %10, ptr %5, align 8, !tbaa !180
  call void @_ZN9grpc_core16CallFinalization9FinalizerD2Ev(ptr noundef nonnull align 8 dereferenceable(24) %6) #3
  %11 = load ptr, ptr %5, align 8, !tbaa !180
  %12 = icmp ne ptr %11, null
  br i1 %12, label %13, label %19

13:                                               ; preds = %2
  %14 = load ptr, ptr %5, align 8, !tbaa !180
  %15 = load ptr, ptr %4, align 8, !tbaa !99
  %16 = load ptr, ptr %14, align 8, !tbaa !46
  %17 = getelementptr inbounds ptr, ptr %16, i64 0
  %18 = load ptr, ptr %17, align 8
  call void %18(ptr noundef nonnull align 8 dereferenceable(8) %14, ptr noundef %15)
  br label %19

19:                                               ; preds = %13, %2
  call void @llvm.lifetime.end.p0(i64 8, ptr %5) #3
  ret void
}