; Function Attrs: mustprogress uwtable
define internal void @_ZN9grpc_core16CallFinalization13FuncFinalizerIZNS_21promise_filter_detail17InterceptFinalizeINS_12_GLOBAL__N_122ServerCallTracerFilter4CallEEEvMT_FvPK20grpc_call_final_infoEPvPS7_EUlSA_E_E3RunESA_(ptr noundef nonnull readonly align 8 captures(none) dereferenceable(24) %0, ptr noundef %1) unnamed_addr #4 align 2 {
  %3 = tail call align 8 ptr @llvm.threadlocal.address.p0(ptr align 8 @_ZN9grpc_core14promise_detail18ThreadLocalContextINS_5ArenaEE8current_E)
  %4 = load ptr, ptr %3, align 8, !tbaa !60
  %5 = getelementptr inbounds nuw i8, ptr %4, i64 56
  %6 = load i16, ptr @_ZN9grpc_core12arena_detail18ArenaContextTraitsINS_19CallTracerInterfaceEE3id_E, align 2, !tbaa !21
  %7 = zext i16 %6 to i64
  %8 = getelementptr inbounds nuw ptr, ptr %5, i64 %7
  %9 = load ptr, ptr %8, align 8, !tbaa !28
  %10 = icmp eq ptr %9, null
  br i1 %10, label %_ZZN9grpc_core21promise_filter_detail17InterceptFinalizeINS_12_GLOBAL__N_122ServerCallTracerFilter4CallEEEvMT_FvPK20grpc_call_final_infoEPvPS5_ENKUlS8_E_clES8_.exit, label %11

11:                                               ; preds = %2
  %12 = load ptr, ptr %9, align 8, !tbaa !19
  %13 = getelementptr inbounds nuw i8, ptr %12, i64 160
  %14 = load ptr, ptr %13, align 8
  tail call void %14(ptr noundef nonnull align 8 dereferenceable(8) %9, ptr noundef %1)
  br label %_ZZN9grpc_core21promise_filter_detail17InterceptFinalizeINS_12_GLOBAL__N_122ServerCallTracerFilter4CallEEEvMT_FvPK20grpc_call_final_infoEPvPS5_ENKUlS8_E_clES8_.exit

_ZZN9grpc_core21promise_filter_detail17InterceptFinalizeINS_12_GLOBAL__N_122ServerCallTracerFilter4CallEEEvMT_FvPK20grpc_call_final_infoEPvPS5_ENKUlS8_E_clES8_.exit: ; preds = %2, %11
  %15 = getelementptr inbounds nuw i8, ptr %0, i64 8
  %16 = load ptr, ptr %15, align 8, !tbaa !134
  %.not = icmp eq ptr %16, null
  br i1 %.not, label %20, label %17

17:                                               ; preds = %_ZZN9grpc_core21promise_filter_detail17InterceptFinalizeINS_12_GLOBAL__N_122ServerCallTracerFilter4CallEEEvMT_FvPK20grpc_call_final_infoEPvPS5_ENKUlS8_E_clES8_.exit
  %18 = load ptr, ptr %16, align 8, !tbaa !19
  %19 = load ptr, ptr %18, align 8
  tail call void %19(ptr noundef nonnull align 8 dereferenceable(8) %16, ptr noundef %1)
  br label %20

20:                                               ; preds = %17, %_ZZN9grpc_core21promise_filter_detail17InterceptFinalizeINS_12_GLOBAL__N_122ServerCallTracerFilter4CallEEEvMT_FvPK20grpc_call_final_infoEPvPS5_ENKUlS8_E_clES8_.exit
  ret void
}